target datalayout = "e-m:e-p270:32:32-p271:32:32-p272:64:64-i64:64-i128:128-f80:128-n8:16:32:64-S128"
target triple = "x86_64-unknown-linux-gnu"

%"class.std::__cxx11::basic_string" = type { %"struct.std::__cxx11::basic_string<char>::_Alloc_hider", i64, %union.anon }
%"struct.std::__cxx11::basic_string<char>::_Alloc_hider" = type { ptr }
%union.anon = type { i64, [8 x i8] }
%class.vector = type { ptr }
%class.vector.0 = type { ptr }
%class.vector.1 = type { ptr }

@.str = private unnamed_addr constant [2 x i8] c" \00", align 1

; Function Attrs: mustprogress nounwind uwtable
define linkonce_odr hidden noundef nonnull align 8 dereferenceable(32) ptr @_ZN6vectorINSt7__cxx1112basic_stringIcSt11char_traitsIcESaIcEEELb1EjEixEj(ptr noundef nonnull align 8 dereferenceable(8) %this, i32 noundef %idx) #5 comdat align 2 {
entry:
  %this.addr = alloca ptr, align 8
  %idx.addr = alloca i32, align 4
  store ptr %this, ptr %this.addr, align 8
  store i32 %idx, ptr %idx.addr, align 4
  %this1 = load ptr, ptr %this.addr, align 8
  %m_data = getelementptr inbounds %class.vector.0, ptr %this1, i32 0, i32 0
  %0 = load ptr, ptr %m_data, align 8
  %1 = load i32, ptr %idx.addr, align 4
  %idxprom = zext i32 %1 to i64
  %arrayidx = getelementptr inbounds %"class.std::__cxx11::basic_string", ptr %0, i64 %idxprom
  ret ptr %arrayidx
}

; Function Attrs: mustprogress nounwind uwtable
define linkonce_odr hidden noundef nonnull align 4 dereferenceable(4) ptr @_ZN6vectorIjLb1EjEixEj(ptr noundef nonnull align 8 dereferenceable(8) %this, i32 noundef %idx) #5 comdat align 2 {
entry:
  %this.addr = alloca ptr, align 8
  %idx.addr = alloca i32, align 4
  store ptr %this, ptr %this.addr, align 8
  store i32 %idx, ptr %idx.addr, align 4
  %this1 = load ptr, ptr %this.addr, align 8
  %m_data = getelementptr inbounds %class.vector.1, ptr %this1, i32 0, i32 0
  %0 = load ptr, ptr %m_data, align 8
  %1 = load i32, ptr %idx.addr, align 4
  %idxprom = zext i32 %1 to i64
  %arrayidx = getelementptr inbounds i32, ptr %0, i64 %idxprom
  ret ptr %arrayidx
}

; Function Attrs: mustprogress uwtable
define linkonce_odr hidden void @_ZN2lp12print_blanksEiRSo(i32 noundef %n, ptr noundef nonnull align 8 dereferenceable(8) %out) #4 comdat {
entry:
  %n.addr = alloca i32, align 4
  %out.addr = alloca ptr, align 8
  store i32 %n, ptr %n.addr, align 4
  store ptr %out, ptr %out.addr, align 8
  br label %while.cond

while.cond:                                       ; preds = %while.body, %entry
  %0 = load i32, ptr %n.addr, align 4
  %dec = add nsw i32 %0, -1
  store i32 %dec, ptr %n.addr, align 4
  %tobool = icmp ne i32 %0, 0
  br i1 %tobool, label %while.body, label %while.end

while.body:                                       ; preds = %while.cond
  %1 = load ptr, ptr %out.addr, align 8
  %call = call noundef nonnull align 8 dereferenceable(8) ptr @_ZStlsISt11char_traitsIcEERSt13basic_ostreamIcT_ES5_c(ptr noundef nonnull align 8 dereferenceable(8) %1, i8 noundef signext 32)
  br label %while.cond, !llvm.loop !8

while.end:                                        ; preds = %while.cond
  ret void
}

; Function Attrs: mustprogress nounwind uwtable
define linkonce_odr hidden noundef i32 @_ZNK6vectorINSt7__cxx1112basic_stringIcSt11char_traitsIcESaIcEEELb1EjE4sizeEv(ptr noundef nonnull align 8 dereferenceable(8) %this) #5 comdat align 2 {
entry:
  %retval = alloca i32, align 4
  %this.addr = alloca ptr, align 8
  store ptr %this, ptr %this.addr, align 8
  %this1 = load ptr, ptr %this.addr, align 8
  %m_data = getelementptr inbounds %class.vector.0, ptr %this1, i32 0, i32 0
  %0 = load ptr, ptr %m_data, align 8
  %cmp = icmp eq ptr %0, null
  br i1 %cmp, label %if.then, label %if.end

if.then:                                          ; preds = %entry
  store i32 0, ptr %retval, align 4
  br label %return

if.end:                                           ; preds = %entry
  %m_data2 = getelementptr inbounds %class.vector.0, ptr %this1, i32 0, i32 0
  %1 = load ptr, ptr %m_data2, align 8
  %arrayidx = getelementptr inbounds i32, ptr %1, i64 -1
  %2 = load i32, ptr %arrayidx, align 4
  store i32 %2, ptr %retval, align 4
  br label %return

return:                                           ; preds = %if.end, %if.then
  %3 = load i32, ptr %retval, align 4
  ret i32 %3
}

; Function Attrs: mustprogress nounwind uwtable
define linkonce_odr hidden noundef nonnull align 8 dereferenceable(8) ptr @_ZN6vectorIS_INSt7__cxx1112basic_stringIcSt11char_traitsIcESaIcEEELb1EjELb1EjEixEj(ptr noundef nonnull align 8 dereferenceable(8) %this, i32 noundef %idx) #5 comdat align 2 {
entry:
  %this.addr = alloca ptr, align 8
  %idx.addr = alloca i32, align 4
  store ptr %this, ptr %this.addr, align 8
  store i32 %idx, ptr %idx.addr, align 4
  %this1 = load ptr, ptr %this.addr, align 8
  %m_data = getelementptr inbounds %class.vector, ptr %this1, i32 0, i32 0
  %0 = load ptr, ptr %m_data, align 8
  %1 = load i32, ptr %idx.addr, align 4
  %idxprom = zext i32 %1 to i64
  %arrayidx = getelementptr inbounds %class.vector.0, ptr %0, i64 %idxprom
  ret ptr %arrayidx
}

; Function Attrs: mustprogress nounwind uwtable
define linkonce_odr hidden noundef i32 @_ZNK6vectorIS_INSt7__cxx1112basic_stringIcSt11char_traitsIcESaIcEEELb1EjELb1EjE4sizeEv(ptr noundef nonnull align 8 dereferenceable(8) %this) #5 comdat align 2 {
entry:
  %retval = alloca i32, align 4
  %this.addr = alloca ptr, align 8
  store ptr %this, ptr %this.addr, align 8
  %this1 = load ptr, ptr %this.addr, align 8
  %m_data = getelementptr inbounds %class.vector, ptr %this1, i32 0, i32 0
  %0 = load ptr, ptr %m_data, align 8
  %cmp = icmp eq ptr %0, null
  br i1 %cmp, label %if.then, label %if.end

if.then:                                          ; preds = %entry
  store i32 0, ptr %retval, align 4
  br label %return

if.end:                                           ; preds = %entry
  %m_data2 = getelementptr inbounds %class.vector, ptr %this1, i32 0, i32 0
  %1 = load ptr, ptr %m_data2, align 8
  %arrayidx = getelementptr inbounds i32, ptr %1, i64 -1
  %2 = load i32, ptr %arrayidx, align 4
  store i32 %2, ptr %retval, align 4
  br label %return

return:                                           ; preds = %if.end, %if.then
  %3 = load i32, ptr %retval, align 4
  ret i32 %3
}

; Function Attrs: mustprogress uwtable
define hidden void @_ZN2lp24print_matrix_with_widthsER6vectorIS0_INSt7__cxx1112basic_stringIcSt11char_traitsIcESaIcEEELb1EjELb1EjERS0_IjLb1EjERSoj(ptr noundef nonnull align 8 dereferenceable(8) %A, ptr noundef nonnull align 8 dereferenceable(8) %ws, ptr noundef nonnull align 8 dereferenceable(8) %out, i32 noundef %blanks_in_front) #4 {
entry:
  %A.addr = alloca ptr, align 8
  %ws.addr = alloca ptr, align 8
  %out.addr = alloca ptr, align 8
  %blanks_in_front.addr = alloca i32, align 4
  %i = alloca i32, align 4
  %j = alloca i32, align 4
  store ptr %A, ptr %A.addr, align 8
  store ptr %ws, ptr %ws.addr, align 8
  store ptr %out, ptr %out.addr, align 8
  store i32 %blanks_in_front, ptr %blanks_in_front.addr, align 4
  store i32 0, ptr %i, align 4
  br label %for.cond

for.cond:                                         ; preds = %for.inc17, %entry
  %0 = load i32, ptr %i, align 4
  %1 = load ptr, ptr %A.addr, align 8
  %call = call noundef i32 @_ZNK6vectorIS_INSt7__cxx1112basic_stringIcSt11char_traitsIcESaIcEEELb1EjELb1EjE4sizeEv(ptr noundef nonnull align 8 dereferenceable(8) %1)
  %cmp = icmp ult i32 %0, %call
  br i1 %cmp, label %for.body, label %for.end19

for.body:                                         ; preds = %for.cond
  store i32 0, ptr %j, align 4
  br label %for.cond1

for.cond1:                                        ; preds = %for.inc, %for.body
  %2 = load i32, ptr %j, align 4
  %3 = load ptr, ptr %A.addr, align 8
  %4 = load i32, ptr %i, align 4
  %call2 = call noundef nonnull align 8 dereferenceable(8) ptr @_ZN6vectorIS_INSt7__cxx1112basic_stringIcSt11char_traitsIcESaIcEEELb1EjELb1EjEixEj(ptr noundef nonnull align 8 dereferenceable(8) %3, i32 noundef %4)
  %call3 = call noundef i32 @_ZNK6vectorINSt7__cxx1112basic_stringIcSt11char_traitsIcESaIcEEELb1EjE4sizeEv(ptr noundef nonnull align 8 dereferenceable(8) %call2)
  %cmp4 = icmp ult i32 %2, %call3
  br i1 %cmp4, label %for.body5, label %for.end

for.body5:                                        ; preds = %for.cond1
  %5 = load i32, ptr %i, align 4
  %cmp6 = icmp ne i32 %5, 0
  br i1 %cmp6, label %land.lhs.true, label %if.end

land.lhs.true:                                    ; preds = %for.body5
  %6 = load i32, ptr %j, align 4
  %cmp7 = icmp eq i32 %6, 0
  br i1 %cmp7, label %if.then, label %if.end

if.then:                                          ; preds = %land.lhs.true
  %7 = load i32, ptr %blanks_in_front.addr, align 4
  %8 = load ptr, ptr %out.addr, align 8
  call void @_ZN2lp12print_blanksEiRSo(i32 noundef %7, ptr noundef nonnull align 8 dereferenceable(8) %8)
  br label %if.end

if.end:                                           ; preds = %if.then, %land.lhs.true, %for.body5
  %9 = load ptr, ptr %ws.addr, align 8
  %10 = load i32, ptr %j, align 4
  %call8 = call noundef nonnull align 4 dereferenceable(4) ptr @_ZN6vectorIjLb1EjEixEj(ptr noundef nonnull align 8 dereferenceable(8) %9, i32 noundef %10)
  %11 = load i32, ptr %call8, align 4
  %12 = load ptr, ptr %A.addr, align 8
  %13 = load i32, ptr %i, align 4
  %call9 = call noundef nonnull align 8 dereferenceable(8) ptr @_ZN6vectorIS_INSt7__cxx1112basic_stringIcSt11char_traitsIcESaIcEEELb1EjELb1EjEixEj(ptr noundef nonnull align 8 dereferenceable(8) %12, i32 noundef %13)
  %14 = load i32, ptr %j, align 4
  %call10 = call noundef nonnull align 8 dereferenceable(32) ptr @_ZN6vectorINSt7__cxx1112basic_stringIcSt11char_traitsIcESaIcEEELb1EjEixEj(ptr noundef nonnull align 8 dereferenceable(8) %call9, i32 noundef %14)
  %call11 = call noundef i64 @_ZNKSt7__cxx1112basic_stringIcSt11char_traitsIcESaIcEE4sizeEv(ptr noundef nonnull align 8 dereferenceable(32) %call10) #3
  %conv = trunc i64 %call11 to i32
  %sub = sub i32 %11, %conv
  %15 = load ptr, ptr %out.addr, align 8
  call void @_ZN2lp12print_blanksEiRSo(i32 noundef %sub, ptr noundef nonnull align 8 dereferenceable(8) %15)
  %16 = load ptr, ptr %out.addr, align 8
  %17 = load ptr, ptr %A.addr, align 8
  %18 = load i32, ptr %i, align 4
  %call12 = call noundef nonnull align 8 dereferenceable(8) ptr @_ZN6vectorIS_INSt7__cxx1112basic_stringIcSt11char_traitsIcESaIcEEELb1EjELb1EjEixEj(ptr noundef nonnull align 8 dereferenceable(8) %17, i32 noundef %18)
  %19 = load i32, ptr %j, align 4
  %call13 = call noundef nonnull align 8 dereferenceable(32) ptr @_ZN6vectorINSt7__cxx1112basic_stringIcSt11char_traitsIcESaIcEEELb1EjEixEj(ptr noundef nonnull align 8 dereferenceable(8) %call12, i32 noundef %19)
  %call14 = call noundef nonnull align 8 dereferenceable(8) ptr @_ZStlsIcSt11char_traitsIcESaIcEERSt13basic_ostreamIT_T0_ES7_RKNSt7__cxx1112basic_stringIS4_S5_T1_EE(ptr noundef nonnull align 8 dereferenceable(8) %16, ptr noundef nonnull align 8 dereferenceable(32) %call13)
  %call15 = call noundef nonnull align 8 dereferenceable(8) ptr @_ZStlsISt11char_traitsIcEERSt13basic_ostreamIcT_ES5_PKc(ptr noundef nonnull align 8 dereferenceable(8) %call14, ptr noundef @.str)
  br label %for.inc

for.inc:                                          ; preds = %if.end
  %20 = load i32, ptr %j, align 4
  %inc = add i32 %20, 1
  store i32 %inc, ptr %j, align 4
  br label %for.cond1, !llvm.loop !6

for.end:                                          ; preds = %for.cond1
  %21 = load ptr, ptr %out.addr, align 8
  %call16 = call noundef nonnull align 8 dereferenceable(8) ptr @_ZNSolsEPFRSoS_E(ptr noundef nonnull align 8 dereferenceable(8) %21, ptr noundef @_ZSt4endlIcSt11char_traitsIcEERSt13basic_ostreamIT_T0_ES6_)
  br label %for.inc17

for.inc17:                                        ; preds = %for.end
  %22 = load i32, ptr %i, align 4
  %inc18 = add i32 %22, 1
  store i32 %inc18, ptr %i, align 4
  br label %for.cond, !llvm.loop !7

for.end19:                                        ; preds = %for.cond
  ret void
}