; Function Attrs: mustprogress uwtable
define hidden void @_ZN2lp24print_matrix_with_widthsER6vectorIS0_INSt7__cxx1112basic_stringIcSt11char_traitsIcESaIcEEELb1EjELb1EjERS0_IjLb1EjERSoj(ptr nocapture noundef nonnull readonly align 8 dereferenceable(8) %A, ptr nocapture noundef nonnull readonly align 8 dereferenceable(8) %ws, ptr noundef nonnull align 8 dereferenceable(8) %out, i32 noundef %blanks_in_front) local_unnamed_addr #3 {
entry:
  %tobool.not1.i = icmp eq i32 %blanks_in_front, 0
  br label %for.cond

for.cond:                                         ; preds = %for.end, %entry
  %indvars.iv47 = phi i64 [ %indvars.iv.next48, %for.end ], [ 0, %entry ]
  %0 = load ptr, ptr %A, align 8
  %cmp.i = icmp eq ptr %0, null
  br i1 %cmp.i, label %_ZNK6vectorIS_INSt7__cxx1112basic_stringIcSt11char_traitsIcESaIcEEELb1EjELb1EjE4sizeEv.exit, label %if.end.i

if.end.i:                                         ; preds = %for.cond
  %arrayidx.i = getelementptr inbounds i8, ptr %0, i64 -4
  %1 = load i32, ptr %arrayidx.i, align 4
  br label %_ZNK6vectorIS_INSt7__cxx1112basic_stringIcSt11char_traitsIcESaIcEEELb1EjELb1EjE4sizeEv.exit

_ZNK6vectorIS_INSt7__cxx1112basic_stringIcSt11char_traitsIcESaIcEEELb1EjELb1EjE4sizeEv.exit: ; preds = %for.cond, %if.end.i
  %retval.0.i = phi i32 [ %1, %if.end.i ], [ 0, %for.cond ]
  %2 = zext i32 %retval.0.i to i64
  %cmp = icmp ult i64 %indvars.iv47, %2
  br i1 %cmp, label %for.cond1.preheader, label %for.end19

for.cond1.preheader:                              ; preds = %_ZNK6vectorIS_INSt7__cxx1112basic_stringIcSt11char_traitsIcESaIcEEELb1EjELb1EjE4sizeEv.exit
  %cmp6 = icmp eq i64 %indvars.iv47, 0
  %3 = or i1 %tobool.not1.i, %cmp6
  br i1 %3, label %for.cond1.us, label %for.cond1

for.cond1.us:                                     ; preds = %for.cond1.preheader, %_ZN2lp12print_blanksEiRSo.exit34.us
  %4 = phi ptr [ %.pre52, %_ZN2lp12print_blanksEiRSo.exit34.us ], [ %0, %for.cond1.preheader ]
  %indvars.iv44 = phi i64 [ %indvars.iv.next45, %_ZN2lp12print_blanksEiRSo.exit34.us ], [ 0, %for.cond1.preheader ]
  %arrayidx.i17.us = getelementptr inbounds %class.vector.0, ptr %4, i64 %indvars.iv47
  %5 = load ptr, ptr %arrayidx.i17.us, align 8
  %cmp.i18.us = icmp eq ptr %5, null
  br i1 %cmp.i18.us, label %_ZNK6vectorINSt7__cxx1112basic_stringIcSt11char_traitsIcESaIcEEELb1EjE4sizeEv.exit.us, label %if.end.i19.us

if.end.i19.us:                                    ; preds = %for.cond1.us
  %arrayidx.i20.us = getelementptr inbounds i8, ptr %5, i64 -4
  %6 = load i32, ptr %arrayidx.i20.us, align 4
  br label %_ZNK6vectorINSt7__cxx1112basic_stringIcSt11char_traitsIcESaIcEEELb1EjE4sizeEv.exit.us

_ZNK6vectorINSt7__cxx1112basic_stringIcSt11char_traitsIcESaIcEEELb1EjE4sizeEv.exit.us: ; preds = %if.end.i19.us, %for.cond1.us
  %retval.0.i21.us = phi i32 [ %6, %if.end.i19.us ], [ 0, %for.cond1.us ]
  %7 = zext i32 %retval.0.i21.us to i64
  %cmp4.us = icmp ult i64 %indvars.iv44, %7
  br i1 %cmp4.us, label %for.body5.us, label %for.end

for.body5.us:                                     ; preds = %_ZNK6vectorINSt7__cxx1112basic_stringIcSt11char_traitsIcESaIcEEELb1EjE4sizeEv.exit.us
  %8 = load ptr, ptr %ws, align 8
  %arrayidx.i23.us = getelementptr inbounds i32, ptr %8, i64 %indvars.iv44
  %9 = load i32, ptr %arrayidx.i23.us, align 4
  %arrayidx.i27.us = getelementptr inbounds %"class.std::__cxx11::basic_string", ptr %5, i64 %indvars.iv44
  %call11.us = tail call noundef i64 @_ZNKSt7__cxx1112basic_stringIcSt11char_traitsIcESaIcEE4sizeEv(ptr noundef nonnull align 8 dereferenceable(32) %arrayidx.i27.us) #12
  %conv.us = trunc i64 %call11.us to i32
  %sub.us = sub i32 %9, %conv.us
  %tobool.not1.i28.us = icmp eq i32 %sub.us, 0
  br i1 %tobool.not1.i28.us, label %_ZN2lp12print_blanksEiRSo.exit34.us, label %while.body.i29.us

while.body.i29.us:                                ; preds = %for.body5.us, %while.body.i29.us
  %n.addr.02.i30.us = phi i32 [ %dec.i31.us, %while.body.i29.us ], [ %sub.us, %for.body5.us ]
  %dec.i31.us = add nsw i32 %n.addr.02.i30.us, -1
  %call.i32.us = tail call noundef nonnull align 8 dereferenceable(8) ptr @_ZStlsISt11char_traitsIcEERSt13basic_ostreamIcT_ES5_c(ptr noundef nonnull align 8 dereferenceable(8) %out, i8 noundef signext 32)
  %tobool.not.i33.us = icmp eq i32 %dec.i31.us, 0
  br i1 %tobool.not.i33.us, label %_ZN2lp12print_blanksEiRSo.exit34.us, label %while.body.i29.us, !llvm.loop !6

_ZN2lp12print_blanksEiRSo.exit34.us:              ; preds = %while.body.i29.us, %for.body5.us
  %10 = load ptr, ptr %A, align 8
  %arrayidx.i36.us = getelementptr inbounds %class.vector.0, ptr %10, i64 %indvars.iv47
  %11 = load ptr, ptr %arrayidx.i36.us, align 8
  %arrayidx.i38.us = getelementptr inbounds %"class.std::__cxx11::basic_string", ptr %11, i64 %indvars.iv44
  %call14.us = tail call noundef nonnull align 8 dereferenceable(8) ptr @_ZStlsIcSt11char_traitsIcESaIcEERSt13basic_ostreamIT_T0_ES7_RKNSt7__cxx1112basic_stringIS4_S5_T1_EE(ptr noundef nonnull align 8 dereferenceable(8) %out, ptr noundef nonnull align 8 dereferenceable(32) %arrayidx.i38.us)
  %call15.us = tail call noundef nonnull align 8 dereferenceable(8) ptr @_ZStlsISt11char_traitsIcEERSt13basic_ostreamIcT_ES5_PKc(ptr noundef nonnull align 8 dereferenceable(8) %call14.us, ptr noundef nonnull @.str)
  %indvars.iv.next45 = add nuw nsw i64 %indvars.iv44, 1
  %.pre52 = load ptr, ptr %A, align 8
  br label %for.cond1.us, !llvm.loop !7

for.cond1:                                        ; preds = %for.cond1.preheader, %_ZN2lp12print_blanksEiRSo.exit34
  %12 = phi ptr [ %.pre, %_ZN2lp12print_blanksEiRSo.exit34 ], [ %0, %for.cond1.preheader ]
  %indvars.iv = phi i64 [ %indvars.iv.next, %_ZN2lp12print_blanksEiRSo.exit34 ], [ 0, %for.cond1.preheader ]
  %arrayidx.i17 = getelementptr inbounds %class.vector.0, ptr %12, i64 %indvars.iv47
  %13 = load ptr, ptr %arrayidx.i17, align 8
  %cmp.i18 = icmp eq ptr %13, null
  br i1 %cmp.i18, label %_ZNK6vectorINSt7__cxx1112basic_stringIcSt11char_traitsIcESaIcEEELb1EjE4sizeEv.exit, label %if.end.i19

if.end.i19:                                       ; preds = %for.cond1
  %arrayidx.i20 = getelementptr inbounds i8, ptr %13, i64 -4
  %14 = load i32, ptr %arrayidx.i20, align 4
  br label %_ZNK6vectorINSt7__cxx1112basic_stringIcSt11char_traitsIcESaIcEEELb1EjE4sizeEv.exit

_ZNK6vectorINSt7__cxx1112basic_stringIcSt11char_traitsIcESaIcEEELb1EjE4sizeEv.exit: ; preds = %for.cond1, %if.end.i19
  %retval.0.i21 = phi i32 [ %14, %if.end.i19 ], [ 0, %for.cond1 ]
  %15 = zext i32 %retval.0.i21 to i64
  %cmp4 = icmp ult i64 %indvars.iv, %15
  br i1 %cmp4, label %for.body5, label %for.end

for.body5:                                        ; preds = %_ZNK6vectorINSt7__cxx1112basic_stringIcSt11char_traitsIcESaIcEEELb1EjE4sizeEv.exit
  %cmp7.not = icmp eq i64 %indvars.iv, 0
  br i1 %cmp7.not, label %while.body.i, label %if.end

while.body.i:                                     ; preds = %for.body5, %while.body.i
  %n.addr.02.i = phi i32 [ %dec.i, %while.body.i ], [ %blanks_in_front, %for.body5 ]
  %dec.i = add nsw i32 %n.addr.02.i, -1
  %call.i = tail call noundef nonnull align 8 dereferenceable(8) ptr @_ZStlsISt11char_traitsIcEERSt13basic_ostreamIcT_ES5_c(ptr noundef nonnull align 8 dereferenceable(8) %out, i8 noundef signext 32)
  %tobool.not.i = icmp eq i32 %dec.i, 0
  br i1 %tobool.not.i, label %if.end.loopexit, label %while.body.i, !llvm.loop !6

if.end.loopexit:                                  ; preds = %while.body.i
  %.pre50 = load ptr, ptr %A, align 8
  %arrayidx.i25.phi.trans.insert = getelementptr inbounds %class.vector.0, ptr %.pre50, i64 %indvars.iv47
  %.pre51 = load ptr, ptr %arrayidx.i25.phi.trans.insert, align 8
  br label %if.end

if.end:                                           ; preds = %if.end.loopexit, %for.body5
  %16 = phi ptr [ %.pre51, %if.end.loopexit ], [ %13, %for.body5 ]
  %17 = load ptr, ptr %ws, align 8
  %arrayidx.i23 = getelementptr inbounds i32, ptr %17, i64 %indvars.iv
  %18 = load i32, ptr %arrayidx.i23, align 4
  %arrayidx.i27 = getelementptr inbounds %"class.std::__cxx11::basic_string", ptr %16, i64 %indvars.iv
  %call11 = tail call noundef i64 @_ZNKSt7__cxx1112basic_stringIcSt11char_traitsIcESaIcEE4sizeEv(ptr noundef nonnull align 8 dereferenceable(32) %arrayidx.i27) #12
  %conv = trunc i64 %call11 to i32
  %sub = sub i32 %18, %conv
  %tobool.not1.i28 = icmp eq i32 %sub, 0
  br i1 %tobool.not1.i28, label %_ZN2lp12print_blanksEiRSo.exit34, label %while.body.i29

while.body.i29:                                   ; preds = %if.end, %while.body.i29
  %n.addr.02.i30 = phi i32 [ %dec.i31, %while.body.i29 ], [ %sub, %if.end ]
  %dec.i31 = add nsw i32 %n.addr.02.i30, -1
  %call.i32 = tail call noundef nonnull align 8 dereferenceable(8) ptr @_ZStlsISt11char_traitsIcEERSt13basic_ostreamIcT_ES5_c(ptr noundef nonnull align 8 dereferenceable(8) %out, i8 noundef signext 32)
  %tobool.not.i33 = icmp eq i32 %dec.i31, 0
  br i1 %tobool.not.i33, label %_ZN2lp12print_blanksEiRSo.exit34, label %while.body.i29, !llvm.loop !6

_ZN2lp12print_blanksEiRSo.exit34:                 ; preds = %while.body.i29, %if.end
  %19 = load ptr, ptr %A, align 8
  %arrayidx.i36 = getelementptr inbounds %class.vector.0, ptr %19, i64 %indvars.iv47
  %20 = load ptr, ptr %arrayidx.i36, align 8
  %arrayidx.i38 = getelementptr inbounds %"class.std::__cxx11::basic_string", ptr %20, i64 %indvars.iv
  %call14 = tail call noundef nonnull align 8 dereferenceable(8) ptr @_ZStlsIcSt11char_traitsIcESaIcEERSt13basic_ostreamIT_T0_ES7_RKNSt7__cxx1112basic_stringIS4_S5_T1_EE(ptr noundef nonnull align 8 dereferenceable(8) %out, ptr noundef nonnull align 8 dereferenceable(32) %arrayidx.i38)
  %call15 = tail call noundef nonnull align 8 dereferenceable(8) ptr @_ZStlsISt11char_traitsIcEERSt13basic_ostreamIcT_ES5_PKc(ptr noundef nonnull align 8 dereferenceable(8) %call14, ptr noundef nonnull @.str)
  %indvars.iv.next = add nuw nsw i64 %indvars.iv, 1
  %.pre = load ptr, ptr %A, align 8
  br label %for.cond1, !llvm.loop !7

for.end:                                          ; preds = %_ZNK6vectorINSt7__cxx1112basic_stringIcSt11char_traitsIcESaIcEEELb1EjE4sizeEv.exit, %_ZNK6vectorINSt7__cxx1112basic_stringIcSt11char_traitsIcESaIcEEELb1EjE4sizeEv.exit.us
  %call16 = tail call noundef nonnull align 8 dereferenceable(8) ptr @_ZNSolsEPFRSoS_E(ptr noundef nonnull align 8 dereferenceable(8) %out, ptr noundef nonnull @_ZSt4endlIcSt11char_traitsIcEERSt13basic_ostreamIT_T0_ES6_)
  %indvars.iv.next48 = add nuw nsw i64 %indvars.iv47, 1
  br label %for.cond, !llvm.loop !8

for.end19:                                        ; preds = %_ZNK6vectorIS_INSt7__cxx1112basic_stringIcSt11char_traitsIcESaIcEEELb1EjELb1EjE4sizeEv.exit
  ret void
}